target datalayout = "e-m:e-p270:32:32-p271:32:32-p272:64:64-i64:64-i128:128-f80:128-n8:16:32:64-S128"
target triple = "x86_64-pc-linux-gnu"

%struct.__va_list_tag = type { i32, i32, ptr, ptr }

@evdns_log_fn = internal global ptr null, align 8

; Function Attrs: nounwind uwtable
define internal void @evdns_log_(i32 noundef %0, ptr noundef %1, ...) #0 {
  %3 = alloca i32, align 4
  %4 = alloca ptr, align 8
  %5 = alloca [1 x %struct.__va_list_tag], align 16
  %6 = alloca [512 x i8], align 16
  %7 = alloca i32, align 4
  store i32 %0, ptr %3, align 4
  store ptr %1, ptr %4, align 8
  call void @llvm.lifetime.start.p0(i64 24, ptr %5) #10
  %8 = getelementptr inbounds [1 x %struct.__va_list_tag], ptr %5, i64 0, i64 0
  call void @llvm.va_start.p0(ptr %8)
  %9 = load ptr, ptr @evdns_log_fn, align 8
  %10 = icmp ne ptr %9, null
  br i1 %10, label %11, label %22

11:                                               ; preds = %2
  call void @llvm.lifetime.start.p0(i64 512, ptr %6) #10
  call void @llvm.lifetime.start.p0(i64 4, ptr %7) #10
  %12 = load i32, ptr %3, align 4
  %13 = icmp eq i32 %12, 2
  %14 = zext i1 %13 to i32
  store i32 %14, ptr %7, align 4
  %15 = getelementptr inbounds [512 x i8], ptr %6, i64 0, i64 0
  %16 = load ptr, ptr %4, align 8
  %17 = getelementptr inbounds [1 x %struct.__va_list_tag], ptr %5, i64 0, i64 0
  %18 = call i32 @evutil_vsnprintf(ptr noundef %15, i64 noundef 512, ptr noundef %16, ptr noundef %17)
  %19 = load ptr, ptr @evdns_log_fn, align 8
  %20 = load i32, ptr %7, align 4
  %21 = getelementptr inbounds [512 x i8], ptr %6, i64 0, i64 0
  call void %19(i32 noundef %20, ptr noundef %21)
  call void @llvm.lifetime.end.p0(i64 4, ptr %7) #10
  call void @llvm.lifetime.end.p0(i64 512, ptr %6) #10
  br label %26

22:                                               ; preds = %2
  %23 = load i32, ptr %3, align 4
  %24 = load ptr, ptr %4, align 8
  %25 = getelementptr inbounds [1 x %struct.__va_list_tag], ptr %5, i64 0, i64 0
  call void @event_logv_(i32 noundef %23, ptr noundef null, ptr noundef %24, ptr noundef %25)
  br label %26

26:                                               ; preds = %22, %11
  %27 = getelementptr inbounds [1 x %struct.__va_list_tag], ptr %5, i64 0, i64 0
  call void @llvm.va_end.p0(ptr %27)
  call void @llvm.lifetime.end.p0(i64 24, ptr %5) #10
  ret void
}