; Function Attrs: nounwind uwtable
define internal void @evdns_log_(i32 noundef range(i32 0, 3) %0, ptr noundef %1, ...) unnamed_addr #2 {
  %3 = alloca [1 x %struct.__va_list_tag], align 16
  %4 = alloca [512 x i8], align 16
  call void @llvm.lifetime.start.p0(i64 24, ptr nonnull %3) #21
  call void @llvm.va_start.p0(ptr nonnull %3)
  %5 = load ptr, ptr @evdns_log_fn, align 8
  %.not = icmp eq ptr %5, null
  br i1 %.not, label %11, label %6

6:                                                ; preds = %2
  call void @llvm.lifetime.start.p0(i64 512, ptr nonnull %4) #21
  %7 = icmp eq i32 %0, 2
  %8 = zext i1 %7 to i32
  %9 = call i32 @evutil_vsnprintf(ptr noundef nonnull %4, i64 noundef 512, ptr noundef %1, ptr noundef nonnull %3) #21
  %10 = load ptr, ptr @evdns_log_fn, align 8
  call void %10(i32 noundef %8, ptr noundef nonnull %4) #21
  call void @llvm.lifetime.end.p0(i64 512, ptr nonnull %4) #21
  br label %12

11:                                               ; preds = %2
  call void @event_logv_(i32 noundef %0, ptr noundef null, ptr noundef %1, ptr noundef nonnull %3) #21
  br label %12

12:                                               ; preds = %11, %6
  call void @llvm.va_end.p0(ptr nonnull %3)
  call void @llvm.lifetime.end.p0(i64 24, ptr nonnull %3) #21
  ret void
}